target datalayout = "e-m:e-p270:32:32-p271:32:32-p272:64:64-i64:64-i128:128-f80:128-n8:16:32:64-S128"
target triple = "x86_64-pc-linux-gnu"

%struct.PageHeaderData = type { %struct.PageXLogRecPtr, i16, i16, i16, i16, i16, i16, i32, [0 x %struct.ItemIdData] }
%struct.PageXLogRecPtr = type { i32, i32 }
%struct.ItemIdData = type { i32 }

; Function Attrs: nounwind uwtable
define dso_local i64 @PageGetFreeSpace(ptr noundef %0) #0 {
  %2 = alloca i64, align 8
  %3 = alloca ptr, align 8
  %4 = alloca ptr, align 8
  %5 = alloca i32, align 4
  %6 = alloca i32, align 4
  store ptr %0, ptr %3, align 8
  call void @llvm.lifetime.start.p0(i64 8, ptr %4) #8
  %7 = load ptr, ptr %3, align 8
  store ptr %7, ptr %4, align 8
  call void @llvm.lifetime.start.p0(i64 4, ptr %5) #8
  %8 = load ptr, ptr %4, align 8
  %9 = getelementptr inbounds nuw %struct.PageHeaderData, ptr %8, i32 0, i32 4
  %10 = load i16, ptr %9, align 2
  %11 = zext i16 %10 to i32
  %12 = load ptr, ptr %4, align 8
  %13 = getelementptr inbounds nuw %struct.PageHeaderData, ptr %12, i32 0, i32 3
  %14 = load i16, ptr %13, align 4
  %15 = zext i16 %14 to i32
  %16 = sub i32 %11, %15
  store i32 %16, ptr %5, align 4
  %17 = load i32, ptr %5, align 4
  %18 = icmp slt i32 %17, 4
  br i1 %18, label %19, label %20

19:                                               ; preds = %1
  store i64 0, ptr %2, align 8
  store i32 1, ptr %6, align 4
  br label %27

20:                                               ; preds = %1
  %21 = load i32, ptr %5, align 4
  %22 = sext i32 %21 to i64
  %23 = sub i64 %22, 4
  %24 = trunc i64 %23 to i32
  store i32 %24, ptr %5, align 4
  %25 = load i32, ptr %5, align 4
  %26 = sext i32 %25 to i64
  store i64 %26, ptr %2, align 8
  store i32 1, ptr %6, align 4
  br label %27

27:                                               ; preds = %20, %19
  call void @llvm.lifetime.end.p0(i64 4, ptr %5) #8
  call void @llvm.lifetime.end.p0(i64 8, ptr %4) #8
  %28 = load i64, ptr %2, align 8
  ret i64 %28
}